target datalayout = "e-m:e-p270:32:32-p271:32:32-p272:64:64-i64:64-i128:128-f80:128-n8:16:32:64-S128"
target triple = "x86_64-pc-linux-gnu"

; Function Attrs: nounwind uwtable
define internal i32 @Scl_LibertySkipEntry(ptr noundef %0, ptr noundef %1) #0 {
  %3 = alloca ptr, align 8
  %4 = alloca ptr, align 8
  %5 = alloca ptr, align 8
  store ptr %0, ptr %3, align 8
  store ptr %1, ptr %4, align 8
  %6 = load ptr, ptr %3, align 8
  %7 = load ptr, ptr %6, align 8
  store ptr %7, ptr %5, align 8
  %8 = load ptr, ptr %5, align 8
  %9 = load i8, ptr %8, align 1
  %10 = sext i8 %9 to i32
  %11 = icmp eq i32 %10, 34
  br i1 %11, label %12, label %32

12:                                               ; preds = %2
  %13 = load ptr, ptr %5, align 8
  %14 = getelementptr inbounds i8, ptr %13, i32 1
  store ptr %14, ptr %5, align 8
  br label %15

15:                                               ; preds = %28, %12
  %16 = load ptr, ptr %5, align 8
  %17 = load ptr, ptr %4, align 8
  %18 = icmp ult ptr %16, %17
  br i1 %18, label %19, label %31

19:                                               ; preds = %15
  %20 = load ptr, ptr %5, align 8
  %21 = load i8, ptr %20, align 1
  %22 = sext i8 %21 to i32
  %23 = icmp eq i32 %22, 34
  br i1 %23, label %24, label %27

24:                                               ; preds = %19
  %25 = load ptr, ptr %5, align 8
  %26 = getelementptr inbounds i8, ptr %25, i32 1
  store ptr %26, ptr %5, align 8
  br label %31

27:                                               ; preds = %19
  br label %28

28:                                               ; preds = %27
  %29 = load ptr, ptr %5, align 8
  %30 = getelementptr inbounds i8, ptr %29, i32 1
  store ptr %30, ptr %5, align 8
  br label %15, !llvm.loop !17

31:                                               ; preds = %24, %15
  br label %93

32:                                               ; preds = %2
  br label %33

33:                                               ; preds = %89, %32
  %34 = load ptr, ptr %5, align 8
  %35 = load ptr, ptr %4, align 8
  %36 = icmp ult ptr %34, %35
  br i1 %36, label %37, label %92

37:                                               ; preds = %33
  %38 = load ptr, ptr %5, align 8
  %39 = load i8, ptr %38, align 1
  %40 = sext i8 %39 to i32
  %41 = icmp eq i32 %40, 32
  br i1 %41, label %87, label %42

42:                                               ; preds = %37
  %43 = load ptr, ptr %5, align 8
  %44 = load i8, ptr %43, align 1
  %45 = sext i8 %44 to i32
  %46 = icmp eq i32 %45, 13
  br i1 %46, label %87, label %47

47:                                               ; preds = %42
  %48 = load ptr, ptr %5, align 8
  %49 = load i8, ptr %48, align 1
  %50 = sext i8 %49 to i32
  %51 = icmp eq i32 %50, 10
  br i1 %51, label %87, label %52

52:                                               ; preds = %47
  %53 = load ptr, ptr %5, align 8
  %54 = load i8, ptr %53, align 1
  %55 = sext i8 %54 to i32
  %56 = icmp eq i32 %55, 9
  br i1 %56, label %87, label %57

57:                                               ; preds = %52
  %58 = load ptr, ptr %5, align 8
  %59 = load i8, ptr %58, align 1
  %60 = sext i8 %59 to i32
  %61 = icmp eq i32 %60, 58
  br i1 %61, label %87, label %62

62:                                               ; preds = %57
  %63 = load ptr, ptr %5, align 8
  %64 = load i8, ptr %63, align 1
  %65 = sext i8 %64 to i32
  %66 = icmp eq i32 %65, 59
  br i1 %66, label %87, label %67

67:                                               ; preds = %62
  %68 = load ptr, ptr %5, align 8
  %69 = load i8, ptr %68, align 1
  %70 = sext i8 %69 to i32
  %71 = icmp eq i32 %70, 40
  br i1 %71, label %87, label %72

72:                                               ; preds = %67
  %73 = load ptr, ptr %5, align 8
  %74 = load i8, ptr %73, align 1
  %75 = sext i8 %74 to i32
  %76 = icmp eq i32 %75, 41
  br i1 %76, label %87, label %77

77:                                               ; preds = %72
  %78 = load ptr, ptr %5, align 8
  %79 = load i8, ptr %78, align 1
  %80 = sext i8 %79 to i32
  %81 = icmp eq i32 %80, 123
  br i1 %81, label %87, label %82

82:                                               ; preds = %77
  %83 = load ptr, ptr %5, align 8
  %84 = load i8, ptr %83, align 1
  %85 = sext i8 %84 to i32
  %86 = icmp eq i32 %85, 125
  br i1 %86, label %87, label %88

87:                                               ; preds = %82, %77, %72, %67, %62, %57, %52, %47, %42, %37
  br label %92

88:                                               ; preds = %82
  br label %89

89:                                               ; preds = %88
  %90 = load ptr, ptr %5, align 8
  %91 = getelementptr inbounds i8, ptr %90, i32 1
  store ptr %91, ptr %5, align 8
  br label %33, !llvm.loop !18

92:                                               ; preds = %87, %33
  br label %93

93:                                               ; preds = %92, %31
  %94 = load ptr, ptr %5, align 8
  %95 = load ptr, ptr %3, align 8
  store ptr %94, ptr %95, align 8
  %96 = load ptr, ptr %5, align 8
  %97 = load ptr, ptr %4, align 8
  %98 = icmp eq ptr %96, %97
  %99 = zext i1 %98 to i32
  ret i32 %99
}