; Function Attrs: nofree norecurse nosync nounwind memory(read, argmem: readwrite, inaccessiblemem: none) uwtable
define internal fastcc range(i32 0, 2) i32 @Scl_LibertySkipEntry(ptr noundef captures(none) %0, ptr noundef readnone %1) unnamed_addr #7 {
  %3 = ptrtoint ptr %1 to i64
  %4 = load ptr, ptr %0, align 8
  %5 = ptrtoint ptr %4 to i64
  %6 = load i8, ptr %4, align 1
  %7 = icmp eq i8 %6, 34
  br i1 %7, label %.preheader, label %.preheader26

.preheader26:                                     ; preds = %2
  %8 = icmp ult ptr %4, %1
  br i1 %8, label %.lr.ph.preheader, label %.loopexit

.lr.ph.preheader:                                 ; preds = %.preheader26
  %9 = sub i64 %3, %5
  %scevgep = getelementptr i8, ptr %4, i64 %9
  br label %.lr.ph

.preheader:                                       ; preds = %2, %11
  %.pn = phi ptr [ %.0, %11 ], [ %4, %2 ]
  %.0 = getelementptr inbounds nuw i8, ptr %.pn, i64 1
  %10 = icmp ult ptr %.0, %1
  br i1 %10, label %11, label %.loopexit

11:                                               ; preds = %.preheader
  %12 = load i8, ptr %.0, align 1
  %13 = icmp eq i8 %12, 34
  br i1 %13, label %14, label %.preheader, !llvm.loop !15

14:                                               ; preds = %11
  %15 = getelementptr inbounds nuw i8, ptr %.pn, i64 2
  br label %.loopexit

.lr.ph:                                           ; preds = %.lr.ph.preheader, %17
  %.230 = phi ptr [ %18, %17 ], [ %4, %.lr.ph.preheader ]
  %16 = load i8, ptr %.230, align 1
  switch i8 %16, label %17 [
    i8 32, label %.loopexit
    i8 13, label %.loopexit
    i8 10, label %.loopexit
    i8 9, label %.loopexit
    i8 58, label %.loopexit
    i8 59, label %.loopexit
    i8 40, label %.loopexit
    i8 41, label %.loopexit
    i8 123, label %.loopexit
    i8 125, label %.loopexit
  ]

17:                                               ; preds = %.lr.ph
  %18 = getelementptr inbounds nuw i8, ptr %.230, i64 1
  %exitcond.not = icmp eq ptr %18, %1
  br i1 %exitcond.not, label %.loopexit, label %.lr.ph, !llvm.loop !16

.loopexit:                                        ; preds = %17, %.lr.ph, %.lr.ph, %.lr.ph, %.lr.ph, %.lr.ph, %.lr.ph, %.lr.ph, %.lr.ph, %.lr.ph, %.lr.ph, %.preheader, %.preheader26, %14
  %.1 = phi ptr [ %15, %14 ], [ %4, %.preheader26 ], [ %.0, %.preheader ], [ %scevgep, %17 ], [ %.230, %.lr.ph ], [ %.230, %.lr.ph ], [ %.230, %.lr.ph ], [ %.230, %.lr.ph ], [ %.230, %.lr.ph ], [ %.230, %.lr.ph ], [ %.230, %.lr.ph ], [ %.230, %.lr.ph ], [ %.230, %.lr.ph ], [ %.230, %.lr.ph ]
  store ptr %.1, ptr %0, align 8
  %19 = icmp eq ptr %.1, %1
  %20 = zext i1 %19 to i32
  ret i32 %20
}